target datalayout = "e-m:e-p270:32:32-p271:32:32-p272:64:64-i64:64-i128:128-f80:128-n8:16:32:64-S128"
target triple = "x86_64-unknown-linux-gnu"

%"class.zmq::xsub_t" = type <{ %"class.zmq::socket_base_t.base", [7 x i8], %"class.zmq::fq_t", %"class.zmq::dist_t", %"class.zmq::radix_tree_t", i8, i8, [6 x i8], %"class.zmq::msg_t", i8, i8, i8, i8, [4 x i8] }>
%"class.zmq::socket_base_t.base" = type <{ %"class.zmq::own_t.base", [4 x i8], %"class.zmq::array_item_t.base", [4 x i8], %"struct.zmq::i_poll_events", %"struct.zmq::i_pipe_events", %"class.zmq::mutex_t", %"class.std::multimap", %"class.zmq::socket_base_t::inprocs_t", i32, i8, i8, [2 x i8], ptr, %"class.zmq::array_t", ptr, ptr, i64, i32, i8, [3 x i8], %"class.zmq::clock_t", ptr, i64, %"class.std::__cxx11::basic_string", i8, [7 x i8], ptr, %"class.zmq::mutex_t", i8 }>
%"class.zmq::own_t.base" = type <{ %"class.zmq::object_t.base", [4 x i8], %"struct.zmq::options_t", i8, [7 x i8], %"class.zmq::atomic_counter_t", i64, ptr, %"class.std::set.28", i32 }>
%"class.zmq::object_t.base" = type <{ ptr, ptr, i32 }>
%"struct.zmq::options_t" = type { i32, i32, i64, i8, [256 x i8], i32, i32, i32, i32, i32, i32, i32, i32, i8, %"struct.zmq::atomic_value_t", i32, i32, i32, i32, i32, i32, i64, i32, i32, i8, i32, i8, i8, i8, i8, i8, %"class.std::__cxx11::basic_string", %"class.std::__cxx11::basic_string", %"class.std::__cxx11::basic_string", i32, i32, i32, i32, %"class.std::vector", %"class.std::set", %"class.std::set", %"class.std::set.6", i32, i32, %"class.std::__cxx11::basic_string", %"class.std::__cxx11::basic_string", %"class.std::__cxx11::basic_string", [32 x i8], [32 x i8], [32 x i8], %"class.std::__cxx11::basic_string", %"class.std::__cxx11::basic_string", i32, i32, i8, i32, i8, i32, i8, i16, i32, i32, i32, %"class.std::__cxx11::basic_string", i8, i8, i8, i32, i32, i8, i32, %"class.std::map", i32, %"class.std::__cxx11::basic_string", %"class.std::__cxx11::basic_string", %"class.std::__cxx11::basic_string", %"class.std::__cxx11::basic_string", i8, %"class.std::vector.21", i8, %"class.std::vector.21", i8, %"class.std::vector.21", i8, i32, i8, i32, i32, i32, i32, i32, i8, i32 }
%"struct.zmq::atomic_value_t" = type { %"struct.std::atomic" }
%"struct.std::atomic" = type { %"struct.std::__atomic_base" }
%"struct.std::__atomic_base" = type { i32 }
%"class.std::vector" = type { %"struct.std::_Vector_base" }
%"struct.std::_Vector_base" = type { %"struct.std::_Vector_base<zmq::tcp_address_mask_t, std::allocator<zmq::tcp_address_mask_t>>::_Vector_impl" }
%"struct.std::_Vector_base<zmq::tcp_address_mask_t, std::allocator<zmq::tcp_address_mask_t>>::_Vector_impl" = type { %"struct.std::_Vector_base<zmq::tcp_address_mask_t, std::allocator<zmq::tcp_address_mask_t>>::_Vector_impl_data" }
%"struct.std::_Vector_base<zmq::tcp_address_mask_t, std::allocator<zmq::tcp_address_mask_t>>::_Vector_impl_data" = type { ptr, ptr, ptr }
%"class.std::set" = type { %"class.std::_Rb_tree" }
%"class.std::_Rb_tree" = type { %"struct.std::_Rb_tree<unsigned int, unsigned int, std::_Identity<unsigned int>, std::less<unsigned int>>::_Rb_tree_impl" }
%"struct.std::_Rb_tree<unsigned int, unsigned int, std::_Identity<unsigned int>, std::less<unsigned int>>::_Rb_tree_impl" = type { %"struct.std::_Rb_tree_key_compare", %"struct.std::_Rb_tree_header" }
%"struct.std::_Rb_tree_key_compare" = type { %"struct.std::less" }
%"struct.std::less" = type { i8 }
%"struct.std::_Rb_tree_header" = type { %"struct.std::_Rb_tree_node_base", i64 }
%"struct.std::_Rb_tree_node_base" = type { i32, ptr, ptr, ptr }
%"class.std::set.6" = type { %"class.std::_Rb_tree.7" }
%"class.std::_Rb_tree.7" = type { %"struct.std::_Rb_tree<int, int, std::_Identity<int>, std::less<int>>::_Rb_tree_impl" }
%"struct.std::_Rb_tree<int, int, std::_Identity<int>, std::less<int>>::_Rb_tree_impl" = type { %"struct.std::_Rb_tree_key_compare.11", %"struct.std::_Rb_tree_header" }
%"struct.std::_Rb_tree_key_compare.11" = type { %"struct.std::less.12" }
%"struct.std::less.12" = type { i8 }
%"class.std::map" = type { %"class.std::_Rb_tree.14" }
%"class.std::_Rb_tree.14" = type { %"struct.std::_Rb_tree<std::__cxx11::basic_string<char>, std::pair<const std::__cxx11::basic_string<char>, std::__cxx11::basic_string<char>>, std::_Select1st<std::pair<const std::__cxx11::basic_string<char>, std::__cxx11::basic_string<char>>>, std::less<std::__cxx11::basic_string<char>>>::_Rb_tree_impl" }
%"struct.std::_Rb_tree<std::__cxx11::basic_string<char>, std::pair<const std::__cxx11::basic_string<char>, std::__cxx11::basic_string<char>>, std::_Select1st<std::pair<const std::__cxx11::basic_string<char>, std::__cxx11::basic_string<char>>>, std::less<std::__cxx11::basic_string<char>>>::_Rb_tree_impl" = type { %"struct.std::_Rb_tree_key_compare.18", %"struct.std::_Rb_tree_header" }
%"struct.std::_Rb_tree_key_compare.18" = type { %"struct.std::less.19" }
%"struct.std::less.19" = type { i8 }
%"class.std::vector.21" = type { %"struct.std::_Vector_base.22" }
%"struct.std::_Vector_base.22" = type { %"struct.std::_Vector_base<unsigned char, std::allocator<unsigned char>>::_Vector_impl" }
%"struct.std::_Vector_base<unsigned char, std::allocator<unsigned char>>::_Vector_impl" = type { %"struct.std::_Vector_base<unsigned char, std::allocator<unsigned char>>::_Vector_impl_data" }
%"struct.std::_Vector_base<unsigned char, std::allocator<unsigned char>>::_Vector_impl_data" = type { ptr, ptr, ptr }
%"class.zmq::atomic_counter_t" = type { %"struct.std::atomic.26", [4 x i8] }
%"struct.std::atomic.26" = type { %"struct.std::__atomic_base.27" }
%"struct.std::__atomic_base.27" = type { i32 }
%"class.std::set.28" = type { %"class.std::_Rb_tree.29" }
%"class.std::_Rb_tree.29" = type { %"struct.std::_Rb_tree<zmq::own_t *, zmq::own_t *, std::_Identity<zmq::own_t *>, std::less<zmq::own_t *>>::_Rb_tree_impl" }
%"struct.std::_Rb_tree<zmq::own_t *, zmq::own_t *, std::_Identity<zmq::own_t *>, std::less<zmq::own_t *>>::_Rb_tree_impl" = type { %"struct.std::_Rb_tree_key_compare.33", %"struct.std::_Rb_tree_header" }
%"struct.std::_Rb_tree_key_compare.33" = type { %"struct.std::less.34" }
%"struct.std::less.34" = type { i8 }
%"class.zmq::array_item_t.base" = type <{ ptr, i32 }>
%"struct.zmq::i_poll_events" = type { ptr }
%"struct.zmq::i_pipe_events" = type { ptr }
%"class.std::multimap" = type { %"class.std::_Rb_tree.36" }
%"class.std::_Rb_tree.36" = type { %"struct.std::_Rb_tree<std::__cxx11::basic_string<char>, std::pair<const std::__cxx11::basic_string<char>, std::pair<zmq::own_t *, zmq::pipe_t *>>, std::_Select1st<std::pair<const std::__cxx11::basic_string<char>, std::pair<zmq::own_t *, zmq::pipe_t *>>>, std::less<std::__cxx11::basic_string<char>>>::_Rb_tree_impl" }
%"struct.std::_Rb_tree<std::__cxx11::basic_string<char>, std::pair<const std::__cxx11::basic_string<char>, std::pair<zmq::own_t *, zmq::pipe_t *>>, std::_Select1st<std::pair<const std::__cxx11::basic_string<char>, std::pair<zmq::own_t *, zmq::pipe_t *>>>, std::less<std::__cxx11::basic_string<char>>>::_Rb_tree_impl" = type { %"struct.std::_Rb_tree_key_compare.18", %"struct.std::_Rb_tree_header" }
%"class.zmq::socket_base_t::inprocs_t" = type { %"class.std::multimap.40" }
%"class.std::multimap.40" = type { %"class.std::_Rb_tree.41" }
%"class.std::_Rb_tree.41" = type { %"struct.std::_Rb_tree<std::__cxx11::basic_string<char>, std::pair<const std::__cxx11::basic_string<char>, zmq::pipe_t *>, std::_Select1st<std::pair<const std::__cxx11::basic_string<char>, zmq::pipe_t *>>, std::less<std::__cxx11::basic_string<char>>>::_Rb_tree_impl" }
%"struct.std::_Rb_tree<std::__cxx11::basic_string<char>, std::pair<const std::__cxx11::basic_string<char>, zmq::pipe_t *>, std::_Select1st<std::pair<const std::__cxx11::basic_string<char>, zmq::pipe_t *>>, std::less<std::__cxx11::basic_string<char>>>::_Rb_tree_impl" = type { %"struct.std::_Rb_tree_key_compare.18", %"struct.std::_Rb_tree_header" }
%"class.zmq::array_t" = type { %"class.std::vector.45" }
%"class.std::vector.45" = type { %"struct.std::_Vector_base.46" }
%"struct.std::_Vector_base.46" = type { %"struct.std::_Vector_base<zmq::pipe_t *, std::allocator<zmq::pipe_t *>>::_Vector_impl" }
%"struct.std::_Vector_base<zmq::pipe_t *, std::allocator<zmq::pipe_t *>>::_Vector_impl" = type { %"struct.std::_Vector_base<zmq::pipe_t *, std::allocator<zmq::pipe_t *>>::_Vector_impl_data" }
%"struct.std::_Vector_base<zmq::pipe_t *, std::allocator<zmq::pipe_t *>>::_Vector_impl_data" = type { ptr, ptr, ptr }
%"class.zmq::clock_t" = type { i64, i64 }
%"class.std::__cxx11::basic_string" = type { %"struct.std::__cxx11::basic_string<char>::_Alloc_hider", i64, %union.anon }
%"struct.std::__cxx11::basic_string<char>::_Alloc_hider" = type { ptr }
%union.anon = type { i64, [8 x i8] }
%"class.zmq::mutex_t" = type <{ %union.pthread_mutex_t, %union.pthread_mutexattr_t, [4 x i8] }>
%union.pthread_mutex_t = type { %struct.__pthread_mutex_s }
%struct.__pthread_mutex_s = type { i32, i32, i32, i32, i32, i16, i16, %struct.__pthread_internal_list }
%struct.__pthread_internal_list = type { ptr, ptr }
%union.pthread_mutexattr_t = type { i32 }
%"class.zmq::fq_t" = type <{ %"class.zmq::array_t.50", i64, i64, i8, [7 x i8] }>
%"class.zmq::array_t.50" = type { %"class.std::vector.45" }
%"class.zmq::dist_t" = type <{ %"class.zmq::array_t.51", i64, i64, i64, i8, [7 x i8] }>
%"class.zmq::array_t.51" = type { %"class.std::vector.45" }
%"class.zmq::radix_tree_t" = type { %struct.node_t, %"class.zmq::atomic_counter_t" }
%struct.node_t = type { ptr }
%"class.zmq::msg_t" = type { %union.anon.52 }
%union.anon.52 = type { %struct.anon }
%struct.anon = type { ptr, [34 x i8], i8, i8, i32, %"union.zmq::msg_t::group_t" }
%"union.zmq::msg_t::group_t" = type { %struct.anon.54 }
%struct.anon.54 = type { i8, ptr }
%"class.zmq::own_t" = type <{ %"class.zmq::object_t.base", [4 x i8], %"struct.zmq::options_t", i8, [7 x i8], %"class.zmq::atomic_counter_t", i64, ptr, %"class.std::set.28", i32, [4 x i8] }>

@stderr = external global ptr, align 8
@.str = private unnamed_addr constant [12 x i8] c"%s (%s:%d)\0A\00", align 1
@.str.1 = private unnamed_addr constant [104 x i8] c"generated/home/dtcxzyw/WorkSpace/Projects/compilers/llvm-opt-benchmark/bench/libzmq/libzmq/src/xsub.cpp\00", align 1

; Function Attrs: mustprogress uwtable
define noundef zeroext i1 @_ZN3zmq6xsub_t5matchEPNS_5msg_tE(ptr noundef nonnull align 8 dereferenceable(2028) %this, ptr noundef %msg_) #0 align 2 {
entry:
  %this.addr = alloca ptr, align 8
  %msg_.addr = alloca ptr, align 8
  %matching = alloca i8, align 1
  store ptr %this, ptr %this.addr, align 8
  store ptr %msg_, ptr %msg_.addr, align 8
  %this1 = load ptr, ptr %this.addr, align 8
  %_subscriptions = getelementptr inbounds %"class.zmq::xsub_t", ptr %this1, i32 0, i32 4
  %0 = load ptr, ptr %msg_.addr, align 8
  %call = call noundef ptr @_ZN3zmq5msg_t4dataEv(ptr noundef nonnull align 8 dereferenceable(64) %0)
  %1 = load ptr, ptr %msg_.addr, align 8
  %call2 = call noundef i64 @_ZNK3zmq5msg_t4sizeEv(ptr noundef nonnull align 8 dereferenceable(64) %1)
  %call3 = call noundef zeroext i1 @_ZN3zmq12radix_tree_t5checkEPKhm(ptr noundef nonnull align 8 dereferenceable(16) %_subscriptions, ptr noundef %call, i64 noundef %call2)
  %frombool = zext i1 %call3 to i8
  store i8 %frombool, ptr %matching, align 1
  %2 = load i8, ptr %matching, align 1
  %tobool = trunc i8 %2 to i1
  %conv = zext i1 %tobool to i32
  %options = getelementptr inbounds %"class.zmq::own_t", ptr %this1, i32 0, i32 2
  %invert_matching = getelementptr inbounds %"struct.zmq::options_t", ptr %options, i32 0, i32 27
  %3 = load i8, ptr %invert_matching, align 1
  %tobool4 = trunc i8 %3 to i1
  %conv5 = zext i1 %tobool4 to i32
  %xor = xor i32 %conv, %conv5
  %tobool6 = icmp ne i32 %xor, 0
  ret i1 %tobool6
}

; Function Attrs: mustprogress uwtable
define noundef i32 @_ZN3zmq6xsub_t5xrecvEPNS_5msg_tE(ptr noundef nonnull align 8 dereferenceable(2028) %this, ptr noundef %msg_) unnamed_addr #0 align 2 {
entry:
  %retval = alloca i32, align 4
  %this.addr = alloca ptr, align 8
  %msg_.addr = alloca ptr, align 8
  %rc = alloca i32, align 4
  %errstr = alloca ptr, align 8
  %rc11 = alloca i32, align 4
  %errstr42 = alloca ptr, align 8
  store ptr %this, ptr %this.addr, align 8
  store ptr %msg_, ptr %msg_.addr, align 8
  %this1 = load ptr, ptr %this.addr, align 8
  %_has_message = getelementptr inbounds %"class.zmq::xsub_t", ptr %this1, i32 0, i32 6
  %0 = load i8, ptr %_has_message, align 1
  %tobool = trunc i8 %0 to i1
  br i1 %tobool, label %if.then, label %if.end10

if.then:                                          ; preds = %entry
  %1 = load ptr, ptr %msg_.addr, align 8
  %_message = getelementptr inbounds %"class.zmq::xsub_t", ptr %this1, i32 0, i32 8
  %call = call noundef i32 @_ZN3zmq5msg_t4moveERS0_(ptr noundef nonnull align 8 dereferenceable(64) %1, ptr noundef nonnull align 8 dereferenceable(64) %_message)
  store i32 %call, ptr %rc, align 4
  br label %do.body

do.body:                                          ; preds = %if.then
  %2 = load i32, ptr %rc, align 4
  %cmp = icmp eq i32 %2, 0
  %lnot = xor i1 %cmp, true
  br i1 %lnot, label %if.then2, label %if.end

if.then2:                                         ; preds = %do.body
  %call3 = call ptr @__errno_location() #9
  %3 = load i32, ptr %call3, align 4
  %call4 = call ptr @strerror(i32 noundef %3) #8
  store ptr %call4, ptr %errstr, align 8
  %4 = load ptr, ptr @stderr, align 8
  %5 = load ptr, ptr %errstr, align 8
  %call5 = call i32 (ptr, ptr, ...) @fprintf(ptr noundef %4, ptr noundef @.str, ptr noundef %5, ptr noundef @.str.1, i32 noundef 181)
  %6 = load ptr, ptr @stderr, align 8
  %call6 = call i32 @fflush(ptr noundef %6)
  %7 = load ptr, ptr %errstr, align 8
  call void @_ZN3zmq9zmq_abortEPKc(ptr noundef %7)
  br label %if.end

if.end:                                           ; preds = %if.then2, %do.body
  br label %do.end

do.end:                                           ; preds = %if.end
  %_has_message7 = getelementptr inbounds %"class.zmq::xsub_t", ptr %this1, i32 0, i32 6
  store i8 0, ptr %_has_message7, align 1
  %8 = load ptr, ptr %msg_.addr, align 8
  %call8 = call noundef zeroext i8 @_ZNK3zmq5msg_t5flagsEv(ptr noundef nonnull align 8 dereferenceable(64) %8)
  %conv = zext i8 %call8 to i32
  %and = and i32 %conv, 1
  %cmp9 = icmp ne i32 %and, 0
  %_more_recv = getelementptr inbounds %"class.zmq::xsub_t", ptr %this1, i32 0, i32 10
  %frombool = zext i1 %cmp9 to i8
  store i8 %frombool, ptr %_more_recv, align 1
  store i32 0, ptr %retval, align 4
  br label %return

if.end10:                                         ; preds = %entry
  br label %while.body

while.body:                                       ; preds = %while.end, %if.end10
  %_fq = getelementptr inbounds %"class.zmq::xsub_t", ptr %this1, i32 0, i32 2
  %9 = load ptr, ptr %msg_.addr, align 8
  %call12 = call noundef i32 @_ZN3zmq4fq_t4recvEPNS_5msg_tE(ptr noundef nonnull align 8 dereferenceable(41) %_fq, ptr noundef %9)
  store i32 %call12, ptr %rc11, align 4
  %10 = load i32, ptr %rc11, align 4
  %cmp13 = icmp ne i32 %10, 0
  br i1 %cmp13, label %if.then14, label %if.end15

if.then14:                                        ; preds = %while.body
  store i32 -1, ptr %retval, align 4
  br label %return

if.end15:                                         ; preds = %while.body
  %_more_recv16 = getelementptr inbounds %"class.zmq::xsub_t", ptr %this1, i32 0, i32 10
  %11 = load i8, ptr %_more_recv16, align 1
  %tobool17 = trunc i8 %11 to i1
  br i1 %tobool17, label %if.then21, label %lor.lhs.false

lor.lhs.false:                                    ; preds = %if.end15
  %options = getelementptr inbounds %"class.zmq::own_t", ptr %this1, i32 0, i32 2
  %filter = getelementptr inbounds %"struct.zmq::options_t", ptr %options, i32 0, i32 26
  %12 = load i8, ptr %filter, align 8
  %tobool18 = trunc i8 %12 to i1
  br i1 %tobool18, label %lor.lhs.false19, label %if.then21

lor.lhs.false19:                                  ; preds = %lor.lhs.false
  %13 = load ptr, ptr %msg_.addr, align 8
  %call20 = call noundef zeroext i1 @_ZN3zmq6xsub_t5matchEPNS_5msg_tE(ptr noundef nonnull align 8 dereferenceable(2028) %this1, ptr noundef %13)
  br i1 %call20, label %if.then21, label %if.end28

if.then21:                                        ; preds = %lor.lhs.false19, %lor.lhs.false, %if.end15
  %14 = load ptr, ptr %msg_.addr, align 8
  %call22 = call noundef zeroext i8 @_ZNK3zmq5msg_t5flagsEv(ptr noundef nonnull align 8 dereferenceable(64) %14)
  %conv23 = zext i8 %call22 to i32
  %and24 = and i32 %conv23, 1
  %cmp25 = icmp ne i32 %and24, 0
  %_more_recv26 = getelementptr inbounds %"class.zmq::xsub_t", ptr %this1, i32 0, i32 10
  %frombool27 = zext i1 %cmp25 to i8
  store i8 %frombool27, ptr %_more_recv26, align 1
  store i32 0, ptr %retval, align 4
  br label %return

if.end28:                                         ; preds = %lor.lhs.false19
  br label %while.cond29

while.cond29:                                     ; preds = %do.end48, %if.end28
  %15 = load ptr, ptr %msg_.addr, align 8
  %call30 = call noundef zeroext i8 @_ZNK3zmq5msg_t5flagsEv(ptr noundef nonnull align 8 dereferenceable(64) %15)
  %conv31 = zext i8 %call30 to i32
  %and32 = and i32 %conv31, 1
  %tobool33 = icmp ne i32 %and32, 0
  br i1 %tobool33, label %while.body34, label %while.end

while.body34:                                     ; preds = %while.cond29
  %_fq35 = getelementptr inbounds %"class.zmq::xsub_t", ptr %this1, i32 0, i32 2
  %16 = load ptr, ptr %msg_.addr, align 8
  %call36 = call noundef i32 @_ZN3zmq4fq_t4recvEPNS_5msg_tE(ptr noundef nonnull align 8 dereferenceable(41) %_fq35, ptr noundef %16)
  store i32 %call36, ptr %rc11, align 4
  br label %do.body37

do.body37:                                        ; preds = %while.body34
  %17 = load i32, ptr %rc11, align 4
  %cmp38 = icmp eq i32 %17, 0
  %lnot39 = xor i1 %cmp38, true
  br i1 %lnot39, label %if.then41, label %if.end47

if.then41:                                        ; preds = %do.body37
  %call43 = call ptr @__errno_location() #9
  %18 = load i32, ptr %call43, align 4
  %call44 = call ptr @strerror(i32 noundef %18) #8
  store ptr %call44, ptr %errstr42, align 8
  %19 = load ptr, ptr @stderr, align 8
  %20 = load ptr, ptr %errstr42, align 8
  %call45 = call i32 (ptr, ptr, ...) @fprintf(ptr noundef %19, ptr noundef @.str, ptr noundef %20, ptr noundef @.str.1, i32 noundef 210)
  %21 = load ptr, ptr @stderr, align 8
  %call46 = call i32 @fflush(ptr noundef %21)
  %22 = load ptr, ptr %errstr42, align 8
  call void @_ZN3zmq9zmq_abortEPKc(ptr noundef %22)
  br label %if.end47

if.end47:                                         ; preds = %if.then41, %do.body37
  br label %do.end48

do.end48:                                         ; preds = %if.end47
  br label %while.cond29, !llvm.loop !4

while.end:                                        ; preds = %while.cond29
  br label %while.body, !llvm.loop !6

return:                                           ; preds = %if.then21, %if.then14, %do.end
  %23 = load i32, ptr %retval, align 4
  ret i32 %23
}