; Function Attrs: mustprogress uwtable
define noundef i32 @_ZN3zmq6xsub_t5xrecvEPNS_5msg_tE(ptr noundef nonnull align 8 dereferenceable(2028) %this, ptr noundef %msg_) unnamed_addr #0 align 2 {
entry:
  %_has_message = getelementptr inbounds i8, ptr %this, i64 1953
  %0 = load i8, ptr %_has_message, align 1
  %1 = and i8 %0, 1
  %tobool.not = icmp eq i8 %1, 0
  br i1 %tobool.not, label %while.body.preheader, label %if.then

while.body.preheader:                             ; preds = %entry
  %_fq = getelementptr inbounds i8, ptr %this, i64 1832
  %call1212 = tail call noundef i32 @_ZN3zmq4fq_t4recvEPNS_5msg_tE(ptr noundef nonnull align 8 dereferenceable(41) %_fq, ptr noundef %msg_)
  %cmp13.not13 = icmp eq i32 %call1212, 0
  br i1 %cmp13.not13, label %if.end15.lr.ph, label %return

if.end15.lr.ph:                                   ; preds = %while.body.preheader
  %_more_recv16 = getelementptr inbounds i8, ptr %this, i64 2025
  %filter = getelementptr inbounds i8, ptr %this, i64 392
  %_subscriptions.i = getelementptr inbounds i8, ptr %this, i64 1936
  %invert_matching.i = getelementptr inbounds i8, ptr %this, i64 393
  br label %if.end15

if.then:                                          ; preds = %entry
  %_message = getelementptr inbounds i8, ptr %this, i64 1960
  %call = tail call noundef i32 @_ZN3zmq5msg_t4moveERS0_(ptr noundef nonnull align 8 dereferenceable(64) %msg_, ptr noundef nonnull align 8 dereferenceable(64) %_message)
  %cmp.not = icmp eq i32 %call, 0
  br i1 %cmp.not, label %do.end, label %if.then2

if.then2:                                         ; preds = %if.then
  %call3 = tail call ptr @__errno_location() #12
  %2 = load i32, ptr %call3, align 4
  %call4 = tail call ptr @strerror(i32 noundef %2) #13
  %3 = load ptr, ptr @stderr, align 8
  %call5 = tail call i32 (ptr, ptr, ...) @fprintf(ptr noundef %3, ptr noundef nonnull @.str, ptr noundef %call4, ptr noundef nonnull @.str.1, i32 noundef 181) #14
  %4 = load ptr, ptr @stderr, align 8
  %call6 = tail call i32 @fflush(ptr noundef %4)
  tail call void @_ZN3zmq9zmq_abortEPKc(ptr noundef %call4)
  br label %do.end

do.end:                                           ; preds = %if.then, %if.then2
  store i8 0, ptr %_has_message, align 1
  %call8 = tail call noundef zeroext i8 @_ZNK3zmq5msg_t5flagsEv(ptr noundef nonnull align 8 dereferenceable(64) %msg_)
  %5 = and i8 %call8, 1
  %_more_recv = getelementptr inbounds i8, ptr %this, i64 2025
  store i8 %5, ptr %_more_recv, align 1
  br label %return

while.body.loopexit:                              ; preds = %do.end48, %while.cond29.preheader
  %call12 = tail call noundef i32 @_ZN3zmq4fq_t4recvEPNS_5msg_tE(ptr noundef nonnull align 8 dereferenceable(41) %_fq, ptr noundef nonnull %msg_)
  %cmp13.not = icmp eq i32 %call12, 0
  br i1 %cmp13.not, label %if.end15, label %return, !llvm.loop !4

if.end15:                                         ; preds = %if.end15.lr.ph, %while.body.loopexit
  %6 = load i8, ptr %_more_recv16, align 1
  %7 = and i8 %6, 1
  %tobool17.not = icmp eq i8 %7, 0
  br i1 %tobool17.not, label %lor.lhs.false, label %if.then21

lor.lhs.false:                                    ; preds = %if.end15
  %8 = load i8, ptr %filter, align 8
  %9 = and i8 %8, 1
  %tobool18.not = icmp eq i8 %9, 0
  br i1 %tobool18.not, label %if.then21, label %lor.lhs.false19

lor.lhs.false19:                                  ; preds = %lor.lhs.false
  %call.i = tail call noundef ptr @_ZN3zmq5msg_t4dataEv(ptr noundef nonnull align 8 dereferenceable(64) %msg_)
  %call2.i = tail call noundef i64 @_ZNK3zmq5msg_t4sizeEv(ptr noundef nonnull align 8 dereferenceable(64) %msg_)
  %call3.i = tail call noundef zeroext i1 @_ZN3zmq12radix_tree_t5checkEPKhm(ptr noundef nonnull align 8 dereferenceable(16) %_subscriptions.i, ptr noundef %call.i, i64 noundef %call2.i)
  %10 = load i8, ptr %invert_matching.i, align 1
  %11 = and i8 %10, 1
  %12 = icmp ne i8 %11, 0
  %tobool6.i = xor i1 %call3.i, %12
  br i1 %tobool6.i, label %if.then21, label %while.cond29.preheader

while.cond29.preheader:                           ; preds = %lor.lhs.false19
  %call3010 = tail call noundef zeroext i8 @_ZNK3zmq5msg_t5flagsEv(ptr noundef nonnull align 8 dereferenceable(64) %msg_)
  %13 = and i8 %call3010, 1
  %tobool33.not11 = icmp eq i8 %13, 0
  br i1 %tobool33.not11, label %while.body.loopexit, label %while.body34

if.then21:                                        ; preds = %lor.lhs.false19, %lor.lhs.false, %if.end15
  %call22 = tail call noundef zeroext i8 @_ZNK3zmq5msg_t5flagsEv(ptr noundef nonnull align 8 dereferenceable(64) %msg_)
  %14 = and i8 %call22, 1
  store i8 %14, ptr %_more_recv16, align 1
  br label %return

while.body34:                                     ; preds = %while.cond29.preheader, %do.end48
  %call36 = tail call noundef i32 @_ZN3zmq4fq_t4recvEPNS_5msg_tE(ptr noundef nonnull align 8 dereferenceable(41) %_fq, ptr noundef nonnull %msg_)
  %cmp38.not = icmp eq i32 %call36, 0
  br i1 %cmp38.not, label %do.end48, label %if.then41

if.then41:                                        ; preds = %while.body34
  %call43 = tail call ptr @__errno_location() #12
  %15 = load i32, ptr %call43, align 4
  %call44 = tail call ptr @strerror(i32 noundef %15) #13
  %16 = load ptr, ptr @stderr, align 8
  %call45 = tail call i32 (ptr, ptr, ...) @fprintf(ptr noundef %16, ptr noundef nonnull @.str, ptr noundef %call44, ptr noundef nonnull @.str.1, i32 noundef 210) #14
  %17 = load ptr, ptr @stderr, align 8
  %call46 = tail call i32 @fflush(ptr noundef %17)
  tail call void @_ZN3zmq9zmq_abortEPKc(ptr noundef %call44)
  br label %do.end48

do.end48:                                         ; preds = %while.body34, %if.then41
  %call30 = tail call noundef zeroext i8 @_ZNK3zmq5msg_t5flagsEv(ptr noundef nonnull align 8 dereferenceable(64) %msg_)
  %18 = and i8 %call30, 1
  %tobool33.not = icmp eq i8 %18, 0
  br i1 %tobool33.not, label %while.body.loopexit, label %while.body34, !llvm.loop !6

return:                                           ; preds = %while.body.loopexit, %while.body.preheader, %if.then21, %do.end
  %retval.0 = phi i32 [ 0, %do.end ], [ 0, %if.then21 ], [ -1, %while.body.preheader ], [ -1, %while.body.loopexit ]
  ret i32 %retval.0
}